
build/program.elf:     file format elf32-littleriscv

Contents of section .text.init:
 0000 17010100 130101fe 97020000 93824201  ..............B.
 0010 73905230 ef00c034 73000000 6f000000  s.R0...4s...o...
Contents of section .text:
 0020 130101fe 23201100 93020000 13030000  ....# ..........
 0030 93030002 63880302 9383f3ff 13131300  ....c...........
 0040 335e7500 137e1e00 3303c301 634ab300  3^u..~..3...cJ..
 0050 3303b340 130e1000 331e7e00 b382c201  3..@....3.~.....
 0060 6ff05ffd 13050000 93050000 33055000  o._.........3.P.
 0070 83200100 13010102 67800000 130101fe  . ......g.......
 0080 23201100 93020000 13030000 93030002  # ..............
 0090 130e0000 638a0302 9383f3ff 13131300  ....c...........
 00a0 130e0000 335e7500 137e1e00 3303c301  ....3^u..~..3...
 00b0 634ab300 3303b340 130e1000 331e7e00  cJ..3..@....3.~.
 00c0 b382c201 6ff01ffd 13050000 93050000  ....o...........
 00d0 33056000 83200100 13010102 67800000  3.`.. ......g...
 00e0 130101fe 232e8100 13040102 2326a4fe  ....#.......#&..
 00f0 8327c4fe 7390277b 13000000 0324c101  .'..s.'{.....$..
 0100 13010102 67800000 130101fd 23268102  ....g.......#&..
 0110 13040103 232ea4fc 8327c4fd 2326f4fe  ....#....'..#&..
 0120 8327c4fe 83a70700 13850700 0324c102  .'...........$..
 0130 13010103 67800000 130101fd 23268102  ....g.......#&..
 0140 13040103 232ea4fc 232cb4fc 8327c4fd  ....#...#,...'..
 0150 2326f4fe 8327c4fe 032784fd 23a0e700  #&...'...'..#...
 0160 13000000 0324c102 13010103 67800000  .....$......g...
 0170 130101fd 23268102 13040103 232ea4fc  ....#&......#...
 0180 232cb4fc 232ac4fc b7070008 2326f4fe  #,..#*......#&..
 0190 8327c4fd 63c20706 0327c4fd 9307f01d  .'..c....'......
 01a0 63cce704 832784fd 63cc0704 032784fd  c....'..c....'..
 01b0 9307f010 63c6e704 032784fd 93070700  ....c....'......
 01c0 93974700 b387e740 93975700 13870700  ..G....@..W.....
 01d0 8327c4fd b307f700 93971700 0327c4fe  .'...........'..
 01e0 b307f700 032744fd 13170701 13570741  .....'D......W.A
 01f0 2390e700 6f000001 13000000 6f008000  #...o.......o...
 0200 13000000 0324c102 13010103 67800000  .....$......g...
 0210 130101fd 23261102 23248102 13040103  ....#&..#$......
 0220 232ea4fc 232604fe 6f000004 232404fe  #...#&..o...#$..
 0230 6f000002 0326c4fd 832584fe 0325c4fe  o....&...%...%..
 0240 eff01ff3 832784fe 93871700 2324f4fe  .....'......#$..
 0250 032784fe 9307f010 e3dee7fc 8327c4fe  .'...........'..
 0260 93871700 2326f4fe 0327c4fe 9307f01d  ....#&...'......
 0270 e3dee7fa 13000000 8320c102 03248102  ......... ...$..
 0280 13010103 67800000 130101fe 232e8100  ....g.......#...
 0290 13040102 2326a4fe 2324b4fe 032784fe  ....#&..#$...'..
 02a0 9307a00f 63f2e702 0327c4fe 93075000  ....c....'....P.
 02b0 63ece700 0327c4fe 832784fe b307f740  c....'...'.....@
 02c0 93870710 6f00c003 032784fe 93075000  ....o....'....P.
 02d0 63e2e702 0327c4fe 9307a00f 63fce700  c....'......c...
 02e0 0327c4fe 832784fe b307f740 938707f0  .'...'.....@....
 02f0 6f000001 0327c4fe 832784fe b307f740  o....'...'.....@
 0300 13850700 0324c101 13010102 67800000  .....$......g...
 0310 130101fe 232e8100 13040102 2326a4fe  ....#.......#&..
 0320 2324b4fe 8327c4fe 63d60700 93070000  #$...'..c.......
 0330 6f000002 0327c4fe 832784fe 6348f700  o....'...'..cH..
 0340 832784fe 9387f7ff 6f008000 8327c4fe  .'......o....'..
 0350 13850700 0324c101 13010102 67800000  .....$......g...
 0360 130101fc 232e1102 232c8102 13040104  ....#...#,......
 0370 13051000 eff0dfd6 232604fe 232404fe  ........#&..#$..
 0380 b7070004 13850710 eff01fd8 232aa4fc  ............#*..
 0390 b7070004 13850720 eff01fd7 2328a4fc  ....... ....#(..
 03a0 232204fe 232004fe 832744fd 032744fe  #"..# ...'D..'D.
 03b0 93050700 13850700 eff01fed 13070500  ................
 03c0 8327c4fe b307f700 9305001e 13850700  .'..............
 03d0 eff01ff4 2326a4fe 832704fd 032704fe  ....#&...'...'..
 03e0 93050700 13850700 eff01fea 13070500  ................
 03f0 832784fe b307f700 93050011 13850700  .'..............
 0400 eff01ff1 2324a4fe b7070004 13850730  ....#$.........0
 0410 eff09fcf 93070500 93d71740 93054000  ...........@..@.
 0420 13850700 eff09fc5 2326a4fc 8327c4fc  ........#&...'..
 0430 63860700 13050000 eff09fdd b7070004  c...............
 0440 13850710 eff05fcc 232aa4fc b7070004  ......_.#*......
 0450 13850720 eff05fcb 2328a4fc 832744fd  ... .._.#(...'D.
 0460 032744fe 93050700 13850700 eff0dfe1  .'D.............
 0470 13070500 8327c4fe b307f700 9305001e  .....'..........
 0480 13850700 eff0dfe8 2324a4fc 832704fd  ........#$...'..
 0490 032704fe 93050700 13850700 eff0dfde  .'..............
 04a0 13070500 832784fe b307f700 93050011  .....'..........
 04b0 13850700 eff0dfe5 2322a4fc 832744fd  ........#"...'D.
 04c0 2322f4fe 832704fd 2320f4fe 8327c4fe  #"...'..# ...'..
 04d0 232ef4fc 6f000004 b7070100 1386f7ff  #...o...........
 04e0 832584fe 0325c4fd eff09fc8 0327c4fe  .%...%.......'..
 04f0 832784fc 635af700 8327c4fd 93871700  .'..cZ...'......
 0500 232ef4fc 6f000001 8327c4fd 9387f7ff  #...o....'......
 0510 232ef4fc 0327c4fe 832784fc 635cf700  #....'...'..c\..
 0520 0327c4fd 832784fc b327f700 93f7f70f  .'...'...'......
 0530 6f004001 0327c4fd 832784fc b3a7e700  o.@..'...'......
 0540 93f7f70f e39a07f8 832784fc 2326f4fe  .........'..#&..
 0550 832784fe 232cf4fc 6f000004 b7070100  .'..#,..o.......
 0560 1386f7ff 832584fd 0325c4fe eff05fc0  .....%...%...._.
 0570 032784fe 832744fc 635af700 832784fd  .'...'D.cZ...'..
 0580 93871700 232cf4fc 6f000001 832784fd  ....#,..o....'..
 0590 9387f7ff 232cf4fc 032784fe 832744fc  ....#,...'...'D.
 05a0 635cf700 032784fd 832744fc b327f700  c\...'...'D..'..
 05b0 93f7f70f 6f004001 032784fd 832744fc  ....o.@..'...'D.
 05c0 b3a7e700 93f7f70f e39a07f8 832744fc  .............'D.
 05d0 2324f4fe b7070100 1386f7ff 832584fe  #$...........%..
 05e0 0325c4fe eff0dfb8 6ff01fe2           .%......o...    
Contents of section .comment:
 0000 4743433a 2028474e 55292037 2e312e30  GCC: (GNU) 7.1.0
 0010 00                                   .               

Disassembly of section .text.init:

00000000 <entry>:
   0:	00010117          	auipc	sp,0x10
   4:	fe010113          	addi	sp,sp,-32 # ffe0 <main+0xfc80>
   8:	00000297          	auipc	t0,0x0
   c:	01428293          	addi	t0,t0,20 # 1c <end>
  10:	30529073          	csrw	mtvec,t0
  14:	34c000ef          	jal	ra,360 <main>
  18:	00000073          	ecall

0000001c <end>:
  1c:	0000006f          	j	1c <end>

Disassembly of section .text:

00000020 <div>:
  20:	fe010113          	addi	sp,sp,-32
  24:	00112023          	sw	ra,0(sp)
  28:	00000293          	li	t0,0
  2c:	00000313          	li	t1,0
  30:	02000393          	li	t2,32

00000034 <div_startloop>:
  34:	02038863          	beqz	t2,64 <div_endloop>
  38:	fff38393          	addi	t2,t2,-1
  3c:	00131313          	slli	t1,t1,0x1
  40:	00755e33          	srl	t3,a0,t2
  44:	001e7e13          	andi	t3,t3,1
  48:	01c30333          	add	t1,t1,t3
  4c:	00b34a63          	blt	t1,a1,60 <div_endif>
  50:	40b30333          	sub	t1,t1,a1
  54:	00100e13          	li	t3,1
  58:	007e1e33          	sll	t3,t3,t2
  5c:	01c282b3          	add	t0,t0,t3

00000060 <div_endif>:
  60:	fd5ff06f          	j	34 <div_startloop>

00000064 <div_endloop>:
  64:	00000513          	li	a0,0
  68:	00000593          	li	a1,0
  6c:	00500533          	add	a0,zero,t0
  70:	00012083          	lw	ra,0(sp)
  74:	02010113          	addi	sp,sp,32
  78:	00008067          	ret

0000007c <rem>:
  7c:	fe010113          	addi	sp,sp,-32
  80:	00112023          	sw	ra,0(sp)
  84:	00000293          	li	t0,0
  88:	00000313          	li	t1,0
  8c:	02000393          	li	t2,32
  90:	00000e13          	li	t3,0

00000094 <startloop>:
  94:	02038a63          	beqz	t2,c8 <endloop>
  98:	fff38393          	addi	t2,t2,-1
  9c:	00131313          	slli	t1,t1,0x1
  a0:	00000e13          	li	t3,0
  a4:	00755e33          	srl	t3,a0,t2
  a8:	001e7e13          	andi	t3,t3,1
  ac:	01c30333          	add	t1,t1,t3
  b0:	00b34a63          	blt	t1,a1,c4 <endif>
  b4:	40b30333          	sub	t1,t1,a1
  b8:	00100e13          	li	t3,1
  bc:	007e1e33          	sll	t3,t3,t2
  c0:	01c282b3          	add	t0,t0,t3

000000c4 <endif>:
  c4:	fd1ff06f          	j	94 <startloop>

000000c8 <endloop>:
  c8:	00000513          	li	a0,0
  cc:	00000593          	li	a1,0
  d0:	00600533          	add	a0,zero,t1
  d4:	00012083          	lw	ra,0(sp)
  d8:	02010113          	addi	sp,sp,32
  dc:	00008067          	ret

000000e0 <debug_print>:
  e0:	fe010113          	addi	sp,sp,-32
  e4:	00812e23          	sw	s0,28(sp)
  e8:	02010413          	addi	s0,sp,32
  ec:	fea42623          	sw	a0,-20(s0)
  f0:	fec42783          	lw	a5,-20(s0)
  f4:	7b279073          	csrw	dscratch,a5
  f8:	00000013          	nop
  fc:	01c12403          	lw	s0,28(sp)
 100:	02010113          	addi	sp,sp,32
 104:	00008067          	ret

00000108 <avalon_read>:
 108:	fd010113          	addi	sp,sp,-48
 10c:	02812623          	sw	s0,44(sp)
 110:	03010413          	addi	s0,sp,48
 114:	fca42e23          	sw	a0,-36(s0)
 118:	fdc42783          	lw	a5,-36(s0)
 11c:	fef42623          	sw	a5,-20(s0)
 120:	fec42783          	lw	a5,-20(s0)
 124:	0007a783          	lw	a5,0(a5)
 128:	00078513          	mv	a0,a5
 12c:	02c12403          	lw	s0,44(sp)
 130:	03010113          	addi	sp,sp,48
 134:	00008067          	ret

00000138 <avalon_write>:
 138:	fd010113          	addi	sp,sp,-48
 13c:	02812623          	sw	s0,44(sp)
 140:	03010413          	addi	s0,sp,48
 144:	fca42e23          	sw	a0,-36(s0)
 148:	fcb42c23          	sw	a1,-40(s0)
 14c:	fdc42783          	lw	a5,-36(s0)
 150:	fef42623          	sw	a5,-20(s0)
 154:	fec42783          	lw	a5,-20(s0)
 158:	fd842703          	lw	a4,-40(s0)
 15c:	00e7a023          	sw	a4,0(a5)
 160:	00000013          	nop
 164:	02c12403          	lw	s0,44(sp)
 168:	03010113          	addi	sp,sp,48
 16c:	00008067          	ret

00000170 <vid_set_pixel>:
 170:	fd010113          	addi	sp,sp,-48
 174:	02812623          	sw	s0,44(sp)
 178:	03010413          	addi	s0,sp,48
 17c:	fca42e23          	sw	a0,-36(s0)
 180:	fcb42c23          	sw	a1,-40(s0)
 184:	fcc42a23          	sw	a2,-44(s0)
 188:	080007b7          	lui	a5,0x8000
 18c:	fef42623          	sw	a5,-20(s0)
 190:	fdc42783          	lw	a5,-36(s0)
 194:	0607c263          	bltz	a5,1f8 <vid_set_pixel+0x88>
 198:	fdc42703          	lw	a4,-36(s0)
 19c:	1df00793          	li	a5,479
 1a0:	04e7cc63          	blt	a5,a4,1f8 <vid_set_pixel+0x88>
 1a4:	fd842783          	lw	a5,-40(s0)
 1a8:	0407cc63          	bltz	a5,200 <vid_set_pixel+0x90>
 1ac:	fd842703          	lw	a4,-40(s0)
 1b0:	10f00793          	li	a5,271
 1b4:	04e7c663          	blt	a5,a4,200 <vid_set_pixel+0x90>
 1b8:	fd842703          	lw	a4,-40(s0)
 1bc:	00070793          	mv	a5,a4
 1c0:	00479793          	slli	a5,a5,0x4
 1c4:	40e787b3          	sub	a5,a5,a4
 1c8:	00579793          	slli	a5,a5,0x5
 1cc:	00078713          	mv	a4,a5
 1d0:	fdc42783          	lw	a5,-36(s0)
 1d4:	00f707b3          	add	a5,a4,a5
 1d8:	00179793          	slli	a5,a5,0x1
 1dc:	fec42703          	lw	a4,-20(s0)
 1e0:	00f707b3          	add	a5,a4,a5
 1e4:	fd442703          	lw	a4,-44(s0)
 1e8:	01071713          	slli	a4,a4,0x10
 1ec:	41075713          	srai	a4,a4,0x10
 1f0:	00e79023          	sh	a4,0(a5) # 8000000 <__sp+0x7ff0000>
 1f4:	0100006f          	j	204 <vid_set_pixel+0x94>
 1f8:	00000013          	nop
 1fc:	0080006f          	j	204 <vid_set_pixel+0x94>
 200:	00000013          	nop
 204:	02c12403          	lw	s0,44(sp)
 208:	03010113          	addi	sp,sp,48
 20c:	00008067          	ret

00000210 <vid_clear>:
 210:	fd010113          	addi	sp,sp,-48
 214:	02112623          	sw	ra,44(sp)
 218:	02812423          	sw	s0,40(sp)
 21c:	03010413          	addi	s0,sp,48
 220:	fca42e23          	sw	a0,-36(s0)
 224:	fe042623          	sw	zero,-20(s0)
 228:	0400006f          	j	268 <vid_clear+0x58>
 22c:	fe042423          	sw	zero,-24(s0)
 230:	0200006f          	j	250 <vid_clear+0x40>
 234:	fdc42603          	lw	a2,-36(s0)
 238:	fe842583          	lw	a1,-24(s0)
 23c:	fec42503          	lw	a0,-20(s0)
 240:	f31ff0ef          	jal	ra,170 <vid_set_pixel>
 244:	fe842783          	lw	a5,-24(s0)
 248:	00178793          	addi	a5,a5,1
 24c:	fef42423          	sw	a5,-24(s0)
 250:	fe842703          	lw	a4,-24(s0)
 254:	10f00793          	li	a5,271
 258:	fce7dee3          	ble	a4,a5,234 <vid_clear+0x24>
 25c:	fec42783          	lw	a5,-20(s0)
 260:	00178793          	addi	a5,a5,1
 264:	fef42623          	sw	a5,-20(s0)
 268:	fec42703          	lw	a4,-20(s0)
 26c:	1df00793          	li	a5,479
 270:	fae7dee3          	ble	a4,a5,22c <vid_clear+0x1c>
 274:	00000013          	nop
 278:	02c12083          	lw	ra,44(sp)
 27c:	02812403          	lw	s0,40(sp)
 280:	03010113          	addi	sp,sp,48
 284:	00008067          	ret

00000288 <getChange>:
 288:	fe010113          	addi	sp,sp,-32
 28c:	00812e23          	sw	s0,28(sp)
 290:	02010413          	addi	s0,sp,32
 294:	fea42623          	sw	a0,-20(s0)
 298:	feb42423          	sw	a1,-24(s0)
 29c:	fe842703          	lw	a4,-24(s0)
 2a0:	0fa00793          	li	a5,250
 2a4:	02e7f263          	bleu	a4,a5,2c8 <getChange+0x40>
 2a8:	fec42703          	lw	a4,-20(s0)
 2ac:	00500793          	li	a5,5
 2b0:	00e7ec63          	bltu	a5,a4,2c8 <getChange+0x40>
 2b4:	fec42703          	lw	a4,-20(s0)
 2b8:	fe842783          	lw	a5,-24(s0)
 2bc:	40f707b3          	sub	a5,a4,a5
 2c0:	10078793          	addi	a5,a5,256
 2c4:	03c0006f          	j	300 <getChange+0x78>
 2c8:	fe842703          	lw	a4,-24(s0)
 2cc:	00500793          	li	a5,5
 2d0:	02e7e263          	bltu	a5,a4,2f4 <getChange+0x6c>
 2d4:	fec42703          	lw	a4,-20(s0)
 2d8:	0fa00793          	li	a5,250
 2dc:	00e7fc63          	bleu	a4,a5,2f4 <getChange+0x6c>
 2e0:	fec42703          	lw	a4,-20(s0)
 2e4:	fe842783          	lw	a5,-24(s0)
 2e8:	40f707b3          	sub	a5,a4,a5
 2ec:	f0078793          	addi	a5,a5,-256
 2f0:	0100006f          	j	300 <getChange+0x78>
 2f4:	fec42703          	lw	a4,-20(s0)
 2f8:	fe842783          	lw	a5,-24(s0)
 2fc:	40f707b3          	sub	a5,a4,a5
 300:	00078513          	mv	a0,a5
 304:	01c12403          	lw	s0,28(sp)
 308:	02010113          	addi	sp,sp,32
 30c:	00008067          	ret

00000310 <clamp>:
 310:	fe010113          	addi	sp,sp,-32
 314:	00812e23          	sw	s0,28(sp)
 318:	02010413          	addi	s0,sp,32
 31c:	fea42623          	sw	a0,-20(s0)
 320:	feb42423          	sw	a1,-24(s0)
 324:	fec42783          	lw	a5,-20(s0)
 328:	0007d663          	bgez	a5,334 <clamp+0x24>
 32c:	00000793          	li	a5,0
 330:	0200006f          	j	350 <clamp+0x40>
 334:	fec42703          	lw	a4,-20(s0)
 338:	fe842783          	lw	a5,-24(s0)
 33c:	00f74863          	blt	a4,a5,34c <clamp+0x3c>
 340:	fe842783          	lw	a5,-24(s0)
 344:	fff78793          	addi	a5,a5,-1
 348:	0080006f          	j	350 <clamp+0x40>
 34c:	fec42783          	lw	a5,-20(s0)
 350:	00078513          	mv	a0,a5
 354:	01c12403          	lw	s0,28(sp)
 358:	02010113          	addi	sp,sp,32
 35c:	00008067          	ret

00000360 <main>:
 360:	fc010113          	addi	sp,sp,-64
 364:	02112e23          	sw	ra,60(sp)
 368:	02812c23          	sw	s0,56(sp)
 36c:	04010413          	addi	s0,sp,64
 370:	00100513          	li	a0,1
 374:	d6dff0ef          	jal	ra,e0 <debug_print>
 378:	fe042623          	sw	zero,-20(s0)
 37c:	fe042423          	sw	zero,-24(s0)
 380:	040007b7          	lui	a5,0x4000
 384:	10078513          	addi	a0,a5,256 # 4000100 <__sp+0x3ff0100>
 388:	d81ff0ef          	jal	ra,108 <avalon_read>
 38c:	fca42a23          	sw	a0,-44(s0)
 390:	040007b7          	lui	a5,0x4000
 394:	20078513          	addi	a0,a5,512 # 4000200 <__sp+0x3ff0200>
 398:	d71ff0ef          	jal	ra,108 <avalon_read>
 39c:	fca42823          	sw	a0,-48(s0)
 3a0:	fe042223          	sw	zero,-28(s0)
 3a4:	fe042023          	sw	zero,-32(s0)
 3a8:	fd442783          	lw	a5,-44(s0)
 3ac:	fe442703          	lw	a4,-28(s0)
 3b0:	00070593          	mv	a1,a4
 3b4:	00078513          	mv	a0,a5
 3b8:	ed1ff0ef          	jal	ra,288 <getChange>
 3bc:	00050713          	mv	a4,a0
 3c0:	fec42783          	lw	a5,-20(s0)
 3c4:	00f707b3          	add	a5,a4,a5
 3c8:	1e000593          	li	a1,480
 3cc:	00078513          	mv	a0,a5
 3d0:	f41ff0ef          	jal	ra,310 <clamp>
 3d4:	fea42623          	sw	a0,-20(s0)
 3d8:	fd042783          	lw	a5,-48(s0)
 3dc:	fe042703          	lw	a4,-32(s0)
 3e0:	00070593          	mv	a1,a4
 3e4:	00078513          	mv	a0,a5
 3e8:	ea1ff0ef          	jal	ra,288 <getChange>
 3ec:	00050713          	mv	a4,a0
 3f0:	fe842783          	lw	a5,-24(s0)
 3f4:	00f707b3          	add	a5,a4,a5
 3f8:	11000593          	li	a1,272
 3fc:	00078513          	mv	a0,a5
 400:	f11ff0ef          	jal	ra,310 <clamp>
 404:	fea42423          	sw	a0,-24(s0)
 408:	040007b7          	lui	a5,0x4000
 40c:	30078513          	addi	a0,a5,768 # 4000300 <__sp+0x3ff0300>
 410:	cf9ff0ef          	jal	ra,108 <avalon_read>
 414:	00050793          	mv	a5,a0
 418:	4017d793          	srai	a5,a5,0x1
 41c:	00400593          	li	a1,4
 420:	00078513          	mv	a0,a5
 424:	c59ff0ef          	jal	ra,7c <rem>
 428:	fca42623          	sw	a0,-52(s0)
 42c:	fcc42783          	lw	a5,-52(s0)
 430:	00078663          	beqz	a5,43c <main+0xdc>
 434:	00000513          	li	a0,0
 438:	dd9ff0ef          	jal	ra,210 <vid_clear>
 43c:	040007b7          	lui	a5,0x4000
 440:	10078513          	addi	a0,a5,256 # 4000100 <__sp+0x3ff0100>
 444:	cc5ff0ef          	jal	ra,108 <avalon_read>
 448:	fca42a23          	sw	a0,-44(s0)
 44c:	040007b7          	lui	a5,0x4000
 450:	20078513          	addi	a0,a5,512 # 4000200 <__sp+0x3ff0200>
 454:	cb5ff0ef          	jal	ra,108 <avalon_read>
 458:	fca42823          	sw	a0,-48(s0)
 45c:	fd442783          	lw	a5,-44(s0)
 460:	fe442703          	lw	a4,-28(s0)
 464:	00070593          	mv	a1,a4
 468:	00078513          	mv	a0,a5
 46c:	e1dff0ef          	jal	ra,288 <getChange>
 470:	00050713          	mv	a4,a0
 474:	fec42783          	lw	a5,-20(s0)
 478:	00f707b3          	add	a5,a4,a5
 47c:	1e000593          	li	a1,480
 480:	00078513          	mv	a0,a5
 484:	e8dff0ef          	jal	ra,310 <clamp>
 488:	fca42423          	sw	a0,-56(s0)
 48c:	fd042783          	lw	a5,-48(s0)
 490:	fe042703          	lw	a4,-32(s0)
 494:	00070593          	mv	a1,a4
 498:	00078513          	mv	a0,a5
 49c:	dedff0ef          	jal	ra,288 <getChange>
 4a0:	00050713          	mv	a4,a0
 4a4:	fe842783          	lw	a5,-24(s0)
 4a8:	00f707b3          	add	a5,a4,a5
 4ac:	11000593          	li	a1,272
 4b0:	00078513          	mv	a0,a5
 4b4:	e5dff0ef          	jal	ra,310 <clamp>
 4b8:	fca42223          	sw	a0,-60(s0)
 4bc:	fd442783          	lw	a5,-44(s0)
 4c0:	fef42223          	sw	a5,-28(s0)
 4c4:	fd042783          	lw	a5,-48(s0)
 4c8:	fef42023          	sw	a5,-32(s0)
 4cc:	fec42783          	lw	a5,-20(s0)
 4d0:	fcf42e23          	sw	a5,-36(s0)
 4d4:	0400006f          	j	514 <main+0x1b4>
 4d8:	000107b7          	lui	a5,0x10
 4dc:	fff78613          	addi	a2,a5,-1 # ffff <main+0xfc9f>
 4e0:	fe842583          	lw	a1,-24(s0)
 4e4:	fdc42503          	lw	a0,-36(s0)
 4e8:	c89ff0ef          	jal	ra,170 <vid_set_pixel>
 4ec:	fec42703          	lw	a4,-20(s0)
 4f0:	fc842783          	lw	a5,-56(s0)
 4f4:	00f75a63          	ble	a5,a4,508 <main+0x1a8>
 4f8:	fdc42783          	lw	a5,-36(s0)
 4fc:	00178793          	addi	a5,a5,1
 500:	fcf42e23          	sw	a5,-36(s0)
 504:	0100006f          	j	514 <main+0x1b4>
 508:	fdc42783          	lw	a5,-36(s0)
 50c:	fff78793          	addi	a5,a5,-1
 510:	fcf42e23          	sw	a5,-36(s0)
 514:	fec42703          	lw	a4,-20(s0)
 518:	fc842783          	lw	a5,-56(s0)
 51c:	00f75c63          	ble	a5,a4,534 <main+0x1d4>
 520:	fdc42703          	lw	a4,-36(s0)
 524:	fc842783          	lw	a5,-56(s0)
 528:	00f727b3          	slt	a5,a4,a5
 52c:	0ff7f793          	andi	a5,a5,255
 530:	0140006f          	j	544 <main+0x1e4>
 534:	fdc42703          	lw	a4,-36(s0)
 538:	fc842783          	lw	a5,-56(s0)
 53c:	00e7a7b3          	slt	a5,a5,a4
 540:	0ff7f793          	andi	a5,a5,255
 544:	f8079ae3          	bnez	a5,4d8 <main+0x178>
 548:	fc842783          	lw	a5,-56(s0)
 54c:	fef42623          	sw	a5,-20(s0)
 550:	fe842783          	lw	a5,-24(s0)
 554:	fcf42c23          	sw	a5,-40(s0)
 558:	0400006f          	j	598 <main+0x238>
 55c:	000107b7          	lui	a5,0x10
 560:	fff78613          	addi	a2,a5,-1 # ffff <main+0xfc9f>
 564:	fd842583          	lw	a1,-40(s0)
 568:	fec42503          	lw	a0,-20(s0)
 56c:	c05ff0ef          	jal	ra,170 <vid_set_pixel>
 570:	fe842703          	lw	a4,-24(s0)
 574:	fc442783          	lw	a5,-60(s0)
 578:	00f75a63          	ble	a5,a4,58c <main+0x22c>
 57c:	fd842783          	lw	a5,-40(s0)
 580:	00178793          	addi	a5,a5,1
 584:	fcf42c23          	sw	a5,-40(s0)
 588:	0100006f          	j	598 <main+0x238>
 58c:	fd842783          	lw	a5,-40(s0)
 590:	fff78793          	addi	a5,a5,-1
 594:	fcf42c23          	sw	a5,-40(s0)
 598:	fe842703          	lw	a4,-24(s0)
 59c:	fc442783          	lw	a5,-60(s0)
 5a0:	00f75c63          	ble	a5,a4,5b8 <main+0x258>
 5a4:	fd842703          	lw	a4,-40(s0)
 5a8:	fc442783          	lw	a5,-60(s0)
 5ac:	00f727b3          	slt	a5,a4,a5
 5b0:	0ff7f793          	andi	a5,a5,255
 5b4:	0140006f          	j	5c8 <main+0x268>
 5b8:	fd842703          	lw	a4,-40(s0)
 5bc:	fc442783          	lw	a5,-60(s0)
 5c0:	00e7a7b3          	slt	a5,a5,a4
 5c4:	0ff7f793          	andi	a5,a5,255
 5c8:	f8079ae3          	bnez	a5,55c <main+0x1fc>
 5cc:	fc442783          	lw	a5,-60(s0)
 5d0:	fef42423          	sw	a5,-24(s0)
 5d4:	000107b7          	lui	a5,0x10
 5d8:	fff78613          	addi	a2,a5,-1 # ffff <main+0xfc9f>
 5dc:	fe842583          	lw	a1,-24(s0)
 5e0:	fec42503          	lw	a0,-20(s0)
 5e4:	b8dff0ef          	jal	ra,170 <vid_set_pixel>
 5e8:	e21ff06f          	j	408 <main+0xa8>
