
build/program.elf:     file format elf32-littleriscv

Contents of section .text.init:
 0000 17010100 130101fe 97020000 93824201  ..............B.
 0010 73905230 ef00802e 73000000 6f000000  s.R0....s...o...
Contents of section .text:
 0020 732510c0 67800000 130101fe 23201100  s%..g.......# ..
 0030 93020000 13030000 93030002 63880302  ............c...
 0040 9383f3ff 13131300 335e7500 137e1e00  ........3^u..~..
 0050 3303c301 634ab300 3303b340 130e1000  3...cJ..3..@....
 0060 331e7e00 b382c201 6ff05ffd 13050000  3.~.....o._.....
 0070 93050000 33055000 83200100 13010102  ....3.P.. ......
 0080 67800000 130101fe 23201100 93020000  g.......# ......
 0090 13030000 93030002 130e0000 638a0302  ............c...
 00a0 9383f3ff 13131300 130e0000 335e7500  ............3^u.
 00b0 137e1e00 3303c301 634ab300 3303b340  .~..3...cJ..3..@
 00c0 130e1000 331e7e00 b382c201 6ff01ffd  ....3.~.....o...
 00d0 13050000 93050000 33056000 83200100  ........3.`.. ..
 00e0 13010102 67800000 130101fe 232e8100  ....g.......#...
 00f0 13040102 2326a4fe 8327c4fe 7390277b  ....#&...'..s.'{
 0100 13000000 0324c101 13010102 67800000  .....$......g...
 0110 130101fd 23268102 13040103 232ea4fc  ....#&......#...
 0120 b7070004 93870708 2326f4fe 8327c4fe  ........#&...'..
 0130 0327c4fd 23a0e700 13000000 0324c102  .'..#........$..
 0140 13010103 67800000 130101fe 232e1100  ....g.......#...
 0150 232c8100 13040102 2326a4fe 93054006  #,......#&....@.
 0160 0325c4fe eff05fec 93070500 93054006  .%...._.......@.
 0170 13850700 eff01ff1 93070500 13850700  ................
 0180 8320c101 03248101 13010102 67800000  . ...$......g...
 0190 130101fe 232e1100 232c8100 13040102  ....#...#,......
 01a0 2326a4fe b7270000 93850771 0325c4fe  #&...'.....q.%..
 01b0 eff09fe7 93070500 9305c003 13850700  ................
 01c0 eff05fec 93070500 13850700 8320c101  .._.......... ..
 01d0 03248101 13010102 67800000 130101fe  .$......g.......
 01e0 232e1100 232c8100 13040102 2326a4fe  #...#,......#&..
 01f0 b7270900 9385077c 0325c4fe eff0dfe2  .'.....|.%......
 0200 93070500 13850700 8320c101 03248101  ......... ...$..
 0210 13010102 67800000 130101fe 232e1100  ....g.......#...
 0220 232c8100 232a9100 13040102 2326a4fe  #,..#*......#&..
 0230 9305a000 0325c4fe eff0dfe4 93040500  .....%..........
 0240 9305a000 0325c4fe eff01fde 93070500  .....%..........
 0250 93974700 b387f400 13850700 8320c101  ..G.......... ..
 0260 03248101 83244101 13010102 67800000  .$...$A.....g...
 0270 130101fe 232e1100 232c8100 232a9100  ....#...#,..#*..
 0280 13040102 eff0dfd9 2326a4fe 0325c4fe  ........#&...%..
 0290 eff09feb 2324a4fe 0325c4fe eff05fef  ....#$...%...._.
 02a0 2322a4fe 0325c4fe eff05ff3 2320a4fe  #"...%...._.# ..
 02b0 032504fe eff05ff6 93070500 93940701  .%...._.........
 02c0 032544fe eff05ff5 93070500 93978700  .%D..._.........
 02d0 b384f400 032584fe eff01ff4 93070500  .....%..........
 02e0 b387f400 13850700 8320c101 03248101  ......... ...$..
 02f0 83244101 13010102 67800000 130101ff  .$A.....g.......
 0300 23261100 23248100 13040101 eff05ff6  #&..#$........_.
 0310 93070500 13850700 eff09fdf 6ff01fff  ............o...
Contents of section .comment:
 0000 4743433a 2028474e 55292037 2e312e30  GCC: (GNU) 7.1.0
 0010 00                                   .               

Disassembly of section .text.init:

00000000 <entry>:
   0:	00010117          	auipc	sp,0x10
   4:	fe010113          	addi	sp,sp,-32 # ffe0 <main+0xfce4>
   8:	00000297          	auipc	t0,0x0
   c:	01428293          	addi	t0,t0,20 # 1c <end>
  10:	30529073          	csrw	mtvec,t0
  14:	2e8000ef          	jal	ra,2fc <main>
  18:	00000073          	ecall

0000001c <end>:
  1c:	0000006f          	j	1c <end>

Disassembly of section .text:

00000020 <get_time>:
  20:	c0102573          	rdtime	a0
  24:	00008067          	ret

00000028 <div>:
  28:	fe010113          	addi	sp,sp,-32
  2c:	00112023          	sw	ra,0(sp)
  30:	00000293          	li	t0,0
  34:	00000313          	li	t1,0
  38:	02000393          	li	t2,32

0000003c <div_startloop>:
  3c:	02038863          	beqz	t2,6c <div_endloop>
  40:	fff38393          	addi	t2,t2,-1
  44:	00131313          	slli	t1,t1,0x1
  48:	00755e33          	srl	t3,a0,t2
  4c:	001e7e13          	andi	t3,t3,1
  50:	01c30333          	add	t1,t1,t3
  54:	00b34a63          	blt	t1,a1,68 <div_endif>
  58:	40b30333          	sub	t1,t1,a1
  5c:	00100e13          	li	t3,1
  60:	007e1e33          	sll	t3,t3,t2
  64:	01c282b3          	add	t0,t0,t3

00000068 <div_endif>:
  68:	fd5ff06f          	j	3c <div_startloop>

0000006c <div_endloop>:
  6c:	00000513          	li	a0,0
  70:	00000593          	li	a1,0
  74:	00500533          	add	a0,zero,t0
  78:	00012083          	lw	ra,0(sp)
  7c:	02010113          	addi	sp,sp,32
  80:	00008067          	ret

00000084 <rem>:
  84:	fe010113          	addi	sp,sp,-32
  88:	00112023          	sw	ra,0(sp)
  8c:	00000293          	li	t0,0
  90:	00000313          	li	t1,0
  94:	02000393          	li	t2,32
  98:	00000e13          	li	t3,0

0000009c <startloop>:
  9c:	02038a63          	beqz	t2,d0 <endloop>
  a0:	fff38393          	addi	t2,t2,-1
  a4:	00131313          	slli	t1,t1,0x1
  a8:	00000e13          	li	t3,0
  ac:	00755e33          	srl	t3,a0,t2
  b0:	001e7e13          	andi	t3,t3,1
  b4:	01c30333          	add	t1,t1,t3
  b8:	00b34a63          	blt	t1,a1,cc <endif>
  bc:	40b30333          	sub	t1,t1,a1
  c0:	00100e13          	li	t3,1
  c4:	007e1e33          	sll	t3,t3,t2
  c8:	01c282b3          	add	t0,t0,t3

000000cc <endif>:
  cc:	fd1ff06f          	j	9c <startloop>

000000d0 <endloop>:
  d0:	00000513          	li	a0,0
  d4:	00000593          	li	a1,0
  d8:	00600533          	add	a0,zero,t1
  dc:	00012083          	lw	ra,0(sp)
  e0:	02010113          	addi	sp,sp,32
  e4:	00008067          	ret

000000e8 <debug_print>:
  e8:	fe010113          	addi	sp,sp,-32
  ec:	00812e23          	sw	s0,28(sp)
  f0:	02010413          	addi	s0,sp,32
  f4:	fea42623          	sw	a0,-20(s0)
  f8:	fec42783          	lw	a5,-20(s0)
  fc:	7b279073          	csrw	dscratch,a5
 100:	00000013          	nop
 104:	01c12403          	lw	s0,28(sp)
 108:	02010113          	addi	sp,sp,32
 10c:	00008067          	ret

00000110 <hex_output>:
 110:	fd010113          	addi	sp,sp,-48
 114:	02812623          	sw	s0,44(sp)
 118:	03010413          	addi	s0,sp,48
 11c:	fca42e23          	sw	a0,-36(s0)
 120:	040007b7          	lui	a5,0x4000
 124:	08078793          	addi	a5,a5,128 # 4000080 <__sp+0x3ff0080>
 128:	fef42623          	sw	a5,-20(s0)
 12c:	fec42783          	lw	a5,-20(s0)
 130:	fdc42703          	lw	a4,-36(s0)
 134:	00e7a023          	sw	a4,0(a5)
 138:	00000013          	nop
 13c:	02c12403          	lw	s0,44(sp)
 140:	03010113          	addi	sp,sp,48
 144:	00008067          	ret

00000148 <getCentiSeconds>:
 148:	fe010113          	addi	sp,sp,-32
 14c:	00112e23          	sw	ra,28(sp)
 150:	00812c23          	sw	s0,24(sp)
 154:	02010413          	addi	s0,sp,32
 158:	fea42623          	sw	a0,-20(s0)
 15c:	06400593          	li	a1,100
 160:	fec42503          	lw	a0,-20(s0)
 164:	ec5ff0ef          	jal	ra,28 <div>
 168:	00050793          	mv	a5,a0
 16c:	06400593          	li	a1,100
 170:	00078513          	mv	a0,a5
 174:	f11ff0ef          	jal	ra,84 <rem>
 178:	00050793          	mv	a5,a0
 17c:	00078513          	mv	a0,a5
 180:	01c12083          	lw	ra,28(sp)
 184:	01812403          	lw	s0,24(sp)
 188:	02010113          	addi	sp,sp,32
 18c:	00008067          	ret

00000190 <getSeconds>:
 190:	fe010113          	addi	sp,sp,-32
 194:	00112e23          	sw	ra,28(sp)
 198:	00812c23          	sw	s0,24(sp)
 19c:	02010413          	addi	s0,sp,32
 1a0:	fea42623          	sw	a0,-20(s0)
 1a4:	000027b7          	lui	a5,0x2
 1a8:	71078593          	addi	a1,a5,1808 # 2710 <main+0x2414>
 1ac:	fec42503          	lw	a0,-20(s0)
 1b0:	e79ff0ef          	jal	ra,28 <div>
 1b4:	00050793          	mv	a5,a0
 1b8:	03c00593          	li	a1,60
 1bc:	00078513          	mv	a0,a5
 1c0:	ec5ff0ef          	jal	ra,84 <rem>
 1c4:	00050793          	mv	a5,a0
 1c8:	00078513          	mv	a0,a5
 1cc:	01c12083          	lw	ra,28(sp)
 1d0:	01812403          	lw	s0,24(sp)
 1d4:	02010113          	addi	sp,sp,32
 1d8:	00008067          	ret

000001dc <getMins>:
 1dc:	fe010113          	addi	sp,sp,-32
 1e0:	00112e23          	sw	ra,28(sp)
 1e4:	00812c23          	sw	s0,24(sp)
 1e8:	02010413          	addi	s0,sp,32
 1ec:	fea42623          	sw	a0,-20(s0)
 1f0:	000927b7          	lui	a5,0x92
 1f4:	7c078593          	addi	a1,a5,1984 # 927c0 <__sp+0x827c0>
 1f8:	fec42503          	lw	a0,-20(s0)
 1fc:	e2dff0ef          	jal	ra,28 <div>
 200:	00050793          	mv	a5,a0
 204:	00078513          	mv	a0,a5
 208:	01c12083          	lw	ra,28(sp)
 20c:	01812403          	lw	s0,24(sp)
 210:	02010113          	addi	sp,sp,32
 214:	00008067          	ret

00000218 <bcd>:
 218:	fe010113          	addi	sp,sp,-32
 21c:	00112e23          	sw	ra,28(sp)
 220:	00812c23          	sw	s0,24(sp)
 224:	00912a23          	sw	s1,20(sp)
 228:	02010413          	addi	s0,sp,32
 22c:	fea42623          	sw	a0,-20(s0)
 230:	00a00593          	li	a1,10
 234:	fec42503          	lw	a0,-20(s0)
 238:	e4dff0ef          	jal	ra,84 <rem>
 23c:	00050493          	mv	s1,a0
 240:	00a00593          	li	a1,10
 244:	fec42503          	lw	a0,-20(s0)
 248:	de1ff0ef          	jal	ra,28 <div>
 24c:	00050793          	mv	a5,a0
 250:	00479793          	slli	a5,a5,0x4
 254:	00f487b3          	add	a5,s1,a5
 258:	00078513          	mv	a0,a5
 25c:	01c12083          	lw	ra,28(sp)
 260:	01812403          	lw	s0,24(sp)
 264:	01412483          	lw	s1,20(sp)
 268:	02010113          	addi	sp,sp,32
 26c:	00008067          	ret

00000270 <getClock>:
 270:	fe010113          	addi	sp,sp,-32
 274:	00112e23          	sw	ra,28(sp)
 278:	00812c23          	sw	s0,24(sp)
 27c:	00912a23          	sw	s1,20(sp)
 280:	02010413          	addi	s0,sp,32
 284:	d9dff0ef          	jal	ra,20 <get_time>
 288:	fea42623          	sw	a0,-20(s0)
 28c:	fec42503          	lw	a0,-20(s0)
 290:	eb9ff0ef          	jal	ra,148 <getCentiSeconds>
 294:	fea42423          	sw	a0,-24(s0)
 298:	fec42503          	lw	a0,-20(s0)
 29c:	ef5ff0ef          	jal	ra,190 <getSeconds>
 2a0:	fea42223          	sw	a0,-28(s0)
 2a4:	fec42503          	lw	a0,-20(s0)
 2a8:	f35ff0ef          	jal	ra,1dc <getMins>
 2ac:	fea42023          	sw	a0,-32(s0)
 2b0:	fe042503          	lw	a0,-32(s0)
 2b4:	f65ff0ef          	jal	ra,218 <bcd>
 2b8:	00050793          	mv	a5,a0
 2bc:	01079493          	slli	s1,a5,0x10
 2c0:	fe442503          	lw	a0,-28(s0)
 2c4:	f55ff0ef          	jal	ra,218 <bcd>
 2c8:	00050793          	mv	a5,a0
 2cc:	00879793          	slli	a5,a5,0x8
 2d0:	00f484b3          	add	s1,s1,a5
 2d4:	fe842503          	lw	a0,-24(s0)
 2d8:	f41ff0ef          	jal	ra,218 <bcd>
 2dc:	00050793          	mv	a5,a0
 2e0:	00f487b3          	add	a5,s1,a5
 2e4:	00078513          	mv	a0,a5
 2e8:	01c12083          	lw	ra,28(sp)
 2ec:	01812403          	lw	s0,24(sp)
 2f0:	01412483          	lw	s1,20(sp)
 2f4:	02010113          	addi	sp,sp,32
 2f8:	00008067          	ret

000002fc <main>:
 2fc:	ff010113          	addi	sp,sp,-16
 300:	00112623          	sw	ra,12(sp)
 304:	00812423          	sw	s0,8(sp)
 308:	01010413          	addi	s0,sp,16
 30c:	f65ff0ef          	jal	ra,270 <getClock>
 310:	00050793          	mv	a5,a0
 314:	00078513          	mv	a0,a5
 318:	df9ff0ef          	jal	ra,110 <hex_output>
 31c:	ff1ff06f          	j	30c <main+0x10>
